target datalayout = "e-m:e-p270:32:32-p271:32:32-p272:64:64-i64:64-i128:128-f80:128-n8:16:32:64-S128"
target triple = "x86_64-unknown-linux-gnu"

%struct.asn1_string_st = type { i32, i32, ptr, i64 }

@.str = private unnamed_addr constant [126 x i8] c"generated/home/dtcxzyw/WorkSpace/Projects/compilers/llvm-opt-benchmark/bench/libquic/libquic/boringssl/crypto/asn1/asn1_lib.c\00", align 1

; Function Attrs: nounwind uwtable
define hidden i32 @ASN1_STRING_set(ptr noundef %str, ptr noundef %_data, i32 noundef %len) #0 {
entry:
  %retval = alloca i32, align 4
  %str.addr = alloca ptr, align 8
  %_data.addr = alloca ptr, align 8
  %len.addr = alloca i32, align 4
  %c = alloca ptr, align 8
  %data = alloca ptr, align 8
  store ptr %str, ptr %str.addr, align 8
  store ptr %_data, ptr %_data.addr, align 8
  store i32 %len, ptr %len.addr, align 4
  %0 = load ptr, ptr %_data.addr, align 8
  store ptr %0, ptr %data, align 8
  %1 = load i32, ptr %len.addr, align 4
  %cmp = icmp slt i32 %1, 0
  br i1 %cmp, label %if.then, label %if.end3

if.then:                                          ; preds = %entry
  %2 = load ptr, ptr %data, align 8
  %cmp1 = icmp eq ptr %2, null
  br i1 %cmp1, label %if.then2, label %if.else

if.then2:                                         ; preds = %if.then
  store i32 0, ptr %retval, align 4
  br label %return

if.else:                                          ; preds = %if.then
  %3 = load ptr, ptr %data, align 8
  %call = call i64 @strlen(ptr noundef %3) #7
  %conv = trunc i64 %call to i32
  store i32 %conv, ptr %len.addr, align 4
  br label %if.end

if.end:                                           ; preds = %if.else
  br label %if.end3

if.end3:                                          ; preds = %if.end, %entry
  %4 = load ptr, ptr %str.addr, align 8
  %length = getelementptr inbounds %struct.asn1_string_st, ptr %4, i32 0, i32 0
  %5 = load i32, ptr %length, align 8
  %6 = load i32, ptr %len.addr, align 4
  %cmp4 = icmp slt i32 %5, %6
  br i1 %cmp4, label %if.then9, label %lor.lhs.false

lor.lhs.false:                                    ; preds = %if.end3
  %7 = load ptr, ptr %str.addr, align 8
  %data6 = getelementptr inbounds %struct.asn1_string_st, ptr %7, i32 0, i32 2
  %8 = load ptr, ptr %data6, align 8
  %cmp7 = icmp eq ptr %8, null
  br i1 %cmp7, label %if.then9, label %if.end29

if.then9:                                         ; preds = %lor.lhs.false, %if.end3
  %9 = load ptr, ptr %str.addr, align 8
  %data10 = getelementptr inbounds %struct.asn1_string_st, ptr %9, i32 0, i32 2
  %10 = load ptr, ptr %data10, align 8
  store ptr %10, ptr %c, align 8
  %11 = load ptr, ptr %c, align 8
  %cmp11 = icmp eq ptr %11, null
  br i1 %cmp11, label %if.then13, label %if.else17

if.then13:                                        ; preds = %if.then9
  %12 = load i32, ptr %len.addr, align 4
  %add = add nsw i32 %12, 1
  %conv14 = sext i32 %add to i64
  %call15 = call noalias ptr @malloc(i64 noundef %conv14) #8
  %13 = load ptr, ptr %str.addr, align 8
  %data16 = getelementptr inbounds %struct.asn1_string_st, ptr %13, i32 0, i32 2
  store ptr %call15, ptr %data16, align 8
  br label %if.end22

if.else17:                                        ; preds = %if.then9
  %14 = load ptr, ptr %c, align 8
  %15 = load i32, ptr %len.addr, align 4
  %add18 = add nsw i32 %15, 1
  %conv19 = sext i32 %add18 to i64
  %call20 = call ptr @realloc(ptr noundef %14, i64 noundef %conv19) #9
  %16 = load ptr, ptr %str.addr, align 8
  %data21 = getelementptr inbounds %struct.asn1_string_st, ptr %16, i32 0, i32 2
  store ptr %call20, ptr %data21, align 8
  br label %if.end22

if.end22:                                         ; preds = %if.else17, %if.then13
  %17 = load ptr, ptr %str.addr, align 8
  %data23 = getelementptr inbounds %struct.asn1_string_st, ptr %17, i32 0, i32 2
  %18 = load ptr, ptr %data23, align 8
  %cmp24 = icmp eq ptr %18, null
  br i1 %cmp24, label %if.then26, label %if.end28

if.then26:                                        ; preds = %if.end22
  call void @ERR_put_error(i32 noundef 12, i32 noundef 0, i32 noundef 65, ptr noundef @.str, i32 noundef 419)
  %19 = load ptr, ptr %c, align 8
  %20 = load ptr, ptr %str.addr, align 8
  %data27 = getelementptr inbounds %struct.asn1_string_st, ptr %20, i32 0, i32 2
  store ptr %19, ptr %data27, align 8
  store i32 0, ptr %retval, align 4
  br label %return

if.end28:                                         ; preds = %if.end22
  br label %if.end29

if.end29:                                         ; preds = %if.end28, %lor.lhs.false
  %21 = load i32, ptr %len.addr, align 4
  %22 = load ptr, ptr %str.addr, align 8
  %length30 = getelementptr inbounds %struct.asn1_string_st, ptr %22, i32 0, i32 0
  store i32 %21, ptr %length30, align 8
  %23 = load ptr, ptr %data, align 8
  %cmp31 = icmp ne ptr %23, null
  br i1 %cmp31, label %if.then33, label %if.end37

if.then33:                                        ; preds = %if.end29
  %24 = load ptr, ptr %str.addr, align 8
  %data34 = getelementptr inbounds %struct.asn1_string_st, ptr %24, i32 0, i32 2
  %25 = load ptr, ptr %data34, align 8
  %26 = load ptr, ptr %data, align 8
  %27 = load i32, ptr %len.addr, align 4
  %conv35 = sext i32 %27 to i64
  call void @llvm.memcpy.p0.p0.i64(ptr align 1 %25, ptr align 1 %26, i64 %conv35, i1 false)
  %28 = load ptr, ptr %str.addr, align 8
  %data36 = getelementptr inbounds %struct.asn1_string_st, ptr %28, i32 0, i32 2
  %29 = load ptr, ptr %data36, align 8
  %30 = load i32, ptr %len.addr, align 4
  %idxprom = sext i32 %30 to i64
  %arrayidx = getelementptr inbounds i8, ptr %29, i64 %idxprom
  store i8 0, ptr %arrayidx, align 1
  br label %if.end37

if.end37:                                         ; preds = %if.then33, %if.end29
  store i32 1, ptr %retval, align 4
  br label %return

return:                                           ; preds = %if.end37, %if.then26, %if.then2
  %31 = load i32, ptr %retval, align 4
  ret i32 %31
}