; Function Attrs: nounwind uwtable
define hidden range(i32 0, 2) i32 @ASN1_STRING_set(ptr noundef captures(none) %str, ptr noundef readonly %_data, i32 noundef %len) local_unnamed_addr #1 {
entry:
  %cmp = icmp slt i32 %len, 0
  br i1 %cmp, label %if.then, label %if.end3

if.then:                                          ; preds = %entry
  %cmp1 = icmp eq ptr %_data, null
  br i1 %cmp1, label %return, label %if.else

if.else:                                          ; preds = %if.then
  %call = tail call i64 @strlen(ptr noundef nonnull dereferenceable(1) %_data) #17
  %conv = trunc i64 %call to i32
  br label %if.end3

if.end3:                                          ; preds = %if.else, %entry
  %len.addr.0 = phi i32 [ %conv, %if.else ], [ %len, %entry ]
  %0 = load i32, ptr %str, align 8
  %cmp4 = icmp slt i32 %0, %len.addr.0
  %data10.phi.trans.insert = getelementptr inbounds nuw i8, ptr %str, i64 8
  %.pre = load ptr, ptr %data10.phi.trans.insert, align 8
  br i1 %cmp4, label %if.then9, label %lor.lhs.false

lor.lhs.false:                                    ; preds = %if.end3
  %cmp7 = icmp eq ptr %.pre, null
  br i1 %cmp7, label %if.then9.thread, label %if.end29

if.then9.thread:                                  ; preds = %lor.lhs.false
  %data1021 = getelementptr inbounds nuw i8, ptr %str, i64 8
  br label %if.then13

if.then9:                                         ; preds = %if.end3
  %data10 = getelementptr inbounds nuw i8, ptr %str, i64 8
  %cmp11 = icmp eq ptr %.pre, null
  br i1 %cmp11, label %if.then13, label %if.else17

if.then13:                                        ; preds = %if.then9.thread, %if.then9
  %data1024 = phi ptr [ %data1021, %if.then9.thread ], [ %data10, %if.then9 ]
  %add = add nsw i32 %len.addr.0, 1
  %conv14 = sext i32 %add to i64
  %call15 = tail call noalias ptr @malloc(i64 noundef %conv14) #18
  br label %if.end22

if.else17:                                        ; preds = %if.then9
  %add18 = add nsw i32 %len.addr.0, 1
  %conv19 = sext i32 %add18 to i64
  %call20 = tail call ptr @realloc(ptr noundef nonnull %.pre, i64 noundef %conv19) #19
  br label %if.end22

if.end22:                                         ; preds = %if.else17, %if.then13
  %data1023 = phi ptr [ %data10, %if.else17 ], [ %data1024, %if.then13 ]
  %1 = phi ptr [ %.pre, %if.else17 ], [ null, %if.then13 ]
  %storemerge = phi ptr [ %call20, %if.else17 ], [ %call15, %if.then13 ]
  store ptr %storemerge, ptr %data1023, align 8
  %cmp24 = icmp eq ptr %storemerge, null
  br i1 %cmp24, label %if.then26, label %if.end29

if.then26:                                        ; preds = %if.end22
  tail call void @ERR_put_error(i32 noundef 12, i32 noundef 0, i32 noundef 65, ptr noundef nonnull @.str, i32 noundef 419) #16
  store ptr %1, ptr %data1023, align 8
  br label %return

if.end29:                                         ; preds = %if.end22, %lor.lhs.false
  %2 = phi ptr [ %storemerge, %if.end22 ], [ %.pre, %lor.lhs.false ]
  store i32 %len.addr.0, ptr %str, align 8
  %cmp31.not = icmp eq ptr %_data, null
  br i1 %cmp31.not, label %return, label %if.then33

if.then33:                                        ; preds = %if.end29
  %data34 = getelementptr inbounds nuw i8, ptr %str, i64 8
  %conv35 = sext i32 %len.addr.0 to i64
  tail call void @llvm.memcpy.p0.p0.i64(ptr nonnull align 1 %2, ptr nonnull align 1 %_data, i64 %conv35, i1 false)
  %3 = load ptr, ptr %data34, align 8
  %arrayidx = getelementptr inbounds i8, ptr %3, i64 %conv35
  store i8 0, ptr %arrayidx, align 1
  br label %return

return:                                           ; preds = %if.end29, %if.then33, %if.then, %if.then26
  %retval.0 = phi i32 [ 0, %if.then26 ], [ 0, %if.then ], [ 1, %if.then33 ], [ 1, %if.end29 ]
  ret i32 %retval.0
}